target datalayout = "e-m:e-p270:32:32-p271:32:32-p272:64:64-i64:64-i128:128-f80:128-n8:16:32:64-S128"
target triple = "x86_64-pc-linux-gnu"

%"class.std::__cxx11::basic_string" = type { %"struct.std::__cxx11::basic_string<char>::_Alloc_hider", i64, %union.anon }
%"struct.std::__cxx11::basic_string<char>::_Alloc_hider" = type { ptr }
%union.anon = type { i64, [8 x i8] }

@_ZN5osgeo4proj9operation27NULL_GEOCENTRIC_TRANSLATIONE = external global ptr, align 8
@.str.29 = private unnamed_addr constant [4 x i8] c" + \00", align 1
@_ZN5osgeo4proj9operation22NULL_GEOGRAPHIC_OFFSETE = external global ptr, align 8
@_ZN5osgeo4proj9operation26BALLPARK_GEOGRAPHIC_OFFSETE = external global ptr, align 8
@_ZN5osgeo4proj9operation31BALLPARK_GEOCENTRIC_TRANSLATIONE = external global ptr, align 8

; Function Attrs: mustprogress nounwind uwtable
define available_externally noundef ptr @_ZNKSt7__cxx1112basic_stringIcSt11char_traitsIcESaIcEE7_M_dataEv(ptr noundef nonnull align 8 dereferenceable(32) %0) #0 align 2 {
  %2 = alloca ptr, align 8
  store ptr %0, ptr %2, align 8, !tbaa !131
  %3 = load ptr, ptr %2, align 8
  %4 = getelementptr inbounds nuw %"class.std::__cxx11::basic_string", ptr %3, i32 0, i32 0
  %5 = getelementptr inbounds nuw %"struct.std::__cxx11::basic_string<char>::_Alloc_hider", ptr %4, i32 0, i32 0
  %6 = load ptr, ptr %5, align 8, !tbaa !734
  ret ptr %6
}

; Function Attrs: mustprogress nounwind uwtable
define available_externally noundef ptr @_ZNKSt7__cxx1112basic_stringIcSt11char_traitsIcESaIcEE5c_strEv(ptr noundef nonnull align 8 dereferenceable(32) %0) #0 align 2 {
  %2 = alloca ptr, align 8
  store ptr %0, ptr %2, align 8, !tbaa !131
  %3 = load ptr, ptr %2, align 8
  %4 = call noundef ptr @_ZNKSt7__cxx1112basic_stringIcSt11char_traitsIcESaIcEE7_M_dataEv(ptr noundef nonnull align 8 dereferenceable(32) %3)
  ret ptr %4
}

; Function Attrs: mustprogress nounwind uwtable
define available_externally noundef i64 @_ZNKSt7__cxx1112basic_stringIcSt11char_traitsIcESaIcEE4sizeEv(ptr noundef nonnull align 8 dereferenceable(32) %0) #0 align 2 {
  %2 = alloca ptr, align 8
  store ptr %0, ptr %2, align 8, !tbaa !131
  %3 = load ptr, ptr %2, align 8
  %4 = getelementptr inbounds nuw %"class.std::__cxx11::basic_string", ptr %3, i32 0, i32 1
  %5 = load i64, ptr %4, align 8, !tbaa !733
  ret i64 %5
}

; Function Attrs: mustprogress nounwind uwtable
define linkonce_odr noundef i64 @_ZNSt11char_traitsIcE6lengthEPKc(ptr noundef %0) #0 comdat align 2 {
  %2 = alloca ptr, align 8
  store ptr %0, ptr %2, align 8, !tbaa !156
  %3 = load ptr, ptr %2, align 8, !tbaa !156
  %4 = call i64 @strlen(ptr noundef %3) #25
  ret i64 %4
}

; Function Attrs: inlinehint mustprogress nounwind uwtable
define linkonce_odr hidden noundef zeroext i1 @_ZN5osgeo4proj8internal11starts_withERKNSt7__cxx1112basic_stringIcSt11char_traitsIcESaIcEEEPKc(ptr noundef nonnull align 8 dereferenceable(32) %0, ptr noundef %1) #5 comdat {
  %3 = alloca i1, align 1
  %4 = alloca ptr, align 8
  %5 = alloca ptr, align 8
  %6 = alloca i64, align 8
  %7 = alloca i32, align 4
  store ptr %0, ptr %4, align 8, !tbaa !131
  store ptr %1, ptr %5, align 8, !tbaa !156
  call void @llvm.lifetime.start.p0(i64 8, ptr %6) #25
  %8 = load ptr, ptr %5, align 8, !tbaa !156
  %9 = call i64 @strlen(ptr noundef %8) #10
  store i64 %9, ptr %6, align 8, !tbaa !60
  %10 = load ptr, ptr %4, align 8, !tbaa !131
  %11 = call noundef i64 @_ZNKSt7__cxx1112basic_stringIcSt11char_traitsIcESaIcEE4sizeEv(ptr noundef nonnull align 8 dereferenceable(32) %10) #25
  %12 = load i64, ptr %6, align 8, !tbaa !60
  %13 = icmp ult i64 %11, %12
  br i1 %13, label %14, label %15

14:                                               ; preds = %2
  store i1 false, ptr %3, align 1
  store i32 1, ptr %7, align 4
  br label %22

15:                                               ; preds = %2
  %16 = load ptr, ptr %4, align 8, !tbaa !131
  %17 = call noundef ptr @_ZNKSt7__cxx1112basic_stringIcSt11char_traitsIcESaIcEE5c_strEv(ptr noundef nonnull align 8 dereferenceable(32) %16) #25
  %18 = load ptr, ptr %5, align 8, !tbaa !156
  %19 = load i64, ptr %6, align 8, !tbaa !60
  %20 = call i32 @memcmp(ptr noundef %17, ptr noundef %18, i64 noundef %19) #10
  %21 = icmp eq i32 %20, 0
  store i1 %21, ptr %3, align 1
  store i32 1, ptr %7, align 4
  br label %22

22:                                               ; preds = %15, %14
  call void @llvm.lifetime.end.p0(i64 8, ptr %6) #25
  %23 = load i1, ptr %3, align 1
  ret i1 %23
}

; Function Attrs: mustprogress nounwind uwtable
define available_externally noundef i64 @_ZNKSt7__cxx1112basic_stringIcSt11char_traitsIcESaIcEE4findEPKcm(ptr noundef nonnull align 8 dereferenceable(32) %0, ptr noundef %1, i64 noundef %2) #0 align 2 {
  %4 = alloca ptr, align 8
  %5 = alloca ptr, align 8
  %6 = alloca i64, align 8
  store ptr %0, ptr %4, align 8, !tbaa !131
  store ptr %1, ptr %5, align 8, !tbaa !156
  store i64 %2, ptr %6, align 8, !tbaa !60
  %7 = load ptr, ptr %4, align 8
  %8 = load ptr, ptr %5, align 8, !tbaa !156
  %9 = load i64, ptr %6, align 8, !tbaa !60
  %10 = load ptr, ptr %5, align 8, !tbaa !156
  %11 = call noundef i64 @_ZNSt11char_traitsIcE6lengthEPKc(ptr noundef %10)
  %12 = call noundef i64 @_ZNKSt7__cxx1112basic_stringIcSt11char_traitsIcESaIcEE4findEPKcmm(ptr noundef nonnull align 8 dereferenceable(32) %7, ptr noundef %8, i64 noundef %9, i64 noundef %11) #25
  ret i64 %12
}

; Function Attrs: mustprogress nounwind uwtable
define internal noundef zeroext i1 @_ZN5osgeo4proj9operationL20isNullTransformationERKNSt7__cxx1112basic_stringIcSt11char_traitsIcESaIcEEE(ptr noundef nonnull align 8 dereferenceable(32) %0) #0 {
  %2 = alloca i1, align 1
  %3 = alloca ptr, align 8
  store ptr %0, ptr %3, align 8, !tbaa !131
  %4 = load ptr, ptr %3, align 8, !tbaa !131
  %5 = call noundef i64 @_ZNKSt7__cxx1112basic_stringIcSt11char_traitsIcESaIcEE4findEPKcm(ptr noundef nonnull align 8 dereferenceable(32) %4, ptr noundef @.str.29, i64 noundef 0) #25
  %6 = icmp ne i64 %5, -1
  br i1 %6, label %7, label %8

7:                                                ; preds = %1
  store i1 false, ptr %2, align 1
  br label %26

8:                                                ; preds = %1
  %9 = load ptr, ptr %3, align 8, !tbaa !131
  %10 = load ptr, ptr @_ZN5osgeo4proj9operation31BALLPARK_GEOCENTRIC_TRANSLATIONE, align 8, !tbaa !156
  %11 = call noundef zeroext i1 @_ZN5osgeo4proj8internal11starts_withERKNSt7__cxx1112basic_stringIcSt11char_traitsIcESaIcEEEPKc(ptr noundef nonnull align 8 dereferenceable(32) %9, ptr noundef %10) #25
  br i1 %11, label %24, label %12

12:                                               ; preds = %8
  %13 = load ptr, ptr %3, align 8, !tbaa !131
  %14 = load ptr, ptr @_ZN5osgeo4proj9operation26BALLPARK_GEOGRAPHIC_OFFSETE, align 8, !tbaa !156
  %15 = call noundef zeroext i1 @_ZN5osgeo4proj8internal11starts_withERKNSt7__cxx1112basic_stringIcSt11char_traitsIcESaIcEEEPKc(ptr noundef nonnull align 8 dereferenceable(32) %13, ptr noundef %14) #25
  br i1 %15, label %24, label %16

16:                                               ; preds = %12
  %17 = load ptr, ptr %3, align 8, !tbaa !131
  %18 = load ptr, ptr @_ZN5osgeo4proj9operation22NULL_GEOGRAPHIC_OFFSETE, align 8, !tbaa !156
  %19 = call noundef zeroext i1 @_ZN5osgeo4proj8internal11starts_withERKNSt7__cxx1112basic_stringIcSt11char_traitsIcESaIcEEEPKc(ptr noundef nonnull align 8 dereferenceable(32) %17, ptr noundef %18) #25
  br i1 %19, label %24, label %20

20:                                               ; preds = %16
  %21 = load ptr, ptr %3, align 8, !tbaa !131
  %22 = load ptr, ptr @_ZN5osgeo4proj9operation27NULL_GEOCENTRIC_TRANSLATIONE, align 8, !tbaa !156
  %23 = call noundef zeroext i1 @_ZN5osgeo4proj8internal11starts_withERKNSt7__cxx1112basic_stringIcSt11char_traitsIcESaIcEEEPKc(ptr noundef nonnull align 8 dereferenceable(32) %21, ptr noundef %22) #25
  br label %24

24:                                               ; preds = %20, %16, %12, %8
  %25 = phi i1 [ true, %16 ], [ true, %12 ], [ true, %8 ], [ %23, %20 ]
  store i1 %25, ptr %2, align 1
  br label %26

26:                                               ; preds = %24, %7
  %27 = load i1, ptr %2, align 1
  ret i1 %27
}