; Function Attrs: mustprogress nounwind uwtable
define internal fastcc noundef zeroext i1 @_ZN5osgeo4proj9operationL20isNullTransformationERKNSt7__cxx1112basic_stringIcSt11char_traitsIcESaIcEEE(ptr noundef nonnull align 8 dereferenceable(32) %0) unnamed_addr #0 {
  %2 = tail call noundef i64 @_ZNKSt7__cxx1112basic_stringIcSt11char_traitsIcESaIcEE4findEPKcmm(ptr noundef nonnull align 8 dereferenceable(32) %0, ptr noundef nonnull @.str.29, i64 noundef 0, i64 noundef 3) #32
  %.not = icmp eq i64 %2, -1
  br i1 %.not, label %3, label %_ZN5osgeo4proj8internal11starts_withERKNSt7__cxx1112basic_stringIcSt11char_traitsIcESaIcEEEPKc.exit14

3:                                                ; preds = %1
  %4 = load ptr, ptr @_ZN5osgeo4proj9operation31BALLPARK_GEOCENTRIC_TRANSLATIONE, align 8, !tbaa !328
  %5 = tail call i64 @strlen(ptr noundef nonnull dereferenceable(1) %4) #37
  %6 = getelementptr inbounds nuw i8, ptr %0, i64 8
  %7 = load i64, ptr %6, align 8, !tbaa !66
  %8 = icmp ult i64 %7, %5
  br i1 %8, label %_ZN5osgeo4proj8internal11starts_withERKNSt7__cxx1112basic_stringIcSt11char_traitsIcESaIcEEEPKc.exit.thread, label %_ZN5osgeo4proj8internal11starts_withERKNSt7__cxx1112basic_stringIcSt11char_traitsIcESaIcEEEPKc.exit

_ZN5osgeo4proj8internal11starts_withERKNSt7__cxx1112basic_stringIcSt11char_traitsIcESaIcEEEPKc.exit: ; preds = %3
  %9 = load ptr, ptr %0, align 8, !tbaa !61
  %bcmp.i = tail call i32 @bcmp(ptr %9, ptr nonnull %4, i64 %5)
  %10 = icmp eq i32 %bcmp.i, 0
  br i1 %10, label %_ZN5osgeo4proj8internal11starts_withERKNSt7__cxx1112basic_stringIcSt11char_traitsIcESaIcEEEPKc.exit14, label %_ZN5osgeo4proj8internal11starts_withERKNSt7__cxx1112basic_stringIcSt11char_traitsIcESaIcEEEPKc.exit.thread

_ZN5osgeo4proj8internal11starts_withERKNSt7__cxx1112basic_stringIcSt11char_traitsIcESaIcEEEPKc.exit.thread: ; preds = %3, %_ZN5osgeo4proj8internal11starts_withERKNSt7__cxx1112basic_stringIcSt11char_traitsIcESaIcEEEPKc.exit
  %11 = load ptr, ptr @_ZN5osgeo4proj9operation26BALLPARK_GEOGRAPHIC_OFFSETE, align 8, !tbaa !328
  %12 = tail call i64 @strlen(ptr noundef nonnull dereferenceable(1) %11) #37
  %13 = icmp ult i64 %7, %12
  br i1 %13, label %_ZN5osgeo4proj8internal11starts_withERKNSt7__cxx1112basic_stringIcSt11char_traitsIcESaIcEEEPKc.exit8.thread, label %_ZN5osgeo4proj8internal11starts_withERKNSt7__cxx1112basic_stringIcSt11char_traitsIcESaIcEEEPKc.exit8

_ZN5osgeo4proj8internal11starts_withERKNSt7__cxx1112basic_stringIcSt11char_traitsIcESaIcEEEPKc.exit8: ; preds = %_ZN5osgeo4proj8internal11starts_withERKNSt7__cxx1112basic_stringIcSt11char_traitsIcESaIcEEEPKc.exit.thread
  %14 = load ptr, ptr %0, align 8, !tbaa !61
  %bcmp.i6 = tail call i32 @bcmp(ptr %14, ptr nonnull %11, i64 %12)
  %15 = icmp eq i32 %bcmp.i6, 0
  br i1 %15, label %_ZN5osgeo4proj8internal11starts_withERKNSt7__cxx1112basic_stringIcSt11char_traitsIcESaIcEEEPKc.exit14, label %_ZN5osgeo4proj8internal11starts_withERKNSt7__cxx1112basic_stringIcSt11char_traitsIcESaIcEEEPKc.exit8.thread

_ZN5osgeo4proj8internal11starts_withERKNSt7__cxx1112basic_stringIcSt11char_traitsIcESaIcEEEPKc.exit8.thread: ; preds = %_ZN5osgeo4proj8internal11starts_withERKNSt7__cxx1112basic_stringIcSt11char_traitsIcESaIcEEEPKc.exit.thread, %_ZN5osgeo4proj8internal11starts_withERKNSt7__cxx1112basic_stringIcSt11char_traitsIcESaIcEEEPKc.exit8
  %16 = load ptr, ptr @_ZN5osgeo4proj9operation22NULL_GEOGRAPHIC_OFFSETE, align 8, !tbaa !328
  %17 = tail call i64 @strlen(ptr noundef nonnull dereferenceable(1) %16) #37
  %18 = icmp ult i64 %7, %17
  br i1 %18, label %_ZN5osgeo4proj8internal11starts_withERKNSt7__cxx1112basic_stringIcSt11char_traitsIcESaIcEEEPKc.exit11.thread, label %_ZN5osgeo4proj8internal11starts_withERKNSt7__cxx1112basic_stringIcSt11char_traitsIcESaIcEEEPKc.exit11

_ZN5osgeo4proj8internal11starts_withERKNSt7__cxx1112basic_stringIcSt11char_traitsIcESaIcEEEPKc.exit11: ; preds = %_ZN5osgeo4proj8internal11starts_withERKNSt7__cxx1112basic_stringIcSt11char_traitsIcESaIcEEEPKc.exit8.thread
  %19 = load ptr, ptr %0, align 8, !tbaa !61
  %bcmp.i9 = tail call i32 @bcmp(ptr %19, ptr nonnull %16, i64 %17)
  %20 = icmp eq i32 %bcmp.i9, 0
  br i1 %20, label %_ZN5osgeo4proj8internal11starts_withERKNSt7__cxx1112basic_stringIcSt11char_traitsIcESaIcEEEPKc.exit14, label %_ZN5osgeo4proj8internal11starts_withERKNSt7__cxx1112basic_stringIcSt11char_traitsIcESaIcEEEPKc.exit11.thread

_ZN5osgeo4proj8internal11starts_withERKNSt7__cxx1112basic_stringIcSt11char_traitsIcESaIcEEEPKc.exit11.thread: ; preds = %_ZN5osgeo4proj8internal11starts_withERKNSt7__cxx1112basic_stringIcSt11char_traitsIcESaIcEEEPKc.exit8.thread, %_ZN5osgeo4proj8internal11starts_withERKNSt7__cxx1112basic_stringIcSt11char_traitsIcESaIcEEEPKc.exit11
  %21 = load ptr, ptr @_ZN5osgeo4proj9operation27NULL_GEOCENTRIC_TRANSLATIONE, align 8, !tbaa !328
  %22 = tail call i64 @strlen(ptr noundef nonnull dereferenceable(1) %21) #37
  %23 = icmp ult i64 %7, %22
  br i1 %23, label %_ZN5osgeo4proj8internal11starts_withERKNSt7__cxx1112basic_stringIcSt11char_traitsIcESaIcEEEPKc.exit14, label %24

24:                                               ; preds = %_ZN5osgeo4proj8internal11starts_withERKNSt7__cxx1112basic_stringIcSt11char_traitsIcESaIcEEEPKc.exit11.thread
  %25 = load ptr, ptr %0, align 8, !tbaa !61
  %bcmp.i12 = tail call i32 @bcmp(ptr %25, ptr nonnull %21, i64 %22)
  %26 = icmp eq i32 %bcmp.i12, 0
  br label %_ZN5osgeo4proj8internal11starts_withERKNSt7__cxx1112basic_stringIcSt11char_traitsIcESaIcEEEPKc.exit14

_ZN5osgeo4proj8internal11starts_withERKNSt7__cxx1112basic_stringIcSt11char_traitsIcESaIcEEEPKc.exit14: ; preds = %24, %_ZN5osgeo4proj8internal11starts_withERKNSt7__cxx1112basic_stringIcSt11char_traitsIcESaIcEEEPKc.exit11.thread, %_ZN5osgeo4proj8internal11starts_withERKNSt7__cxx1112basic_stringIcSt11char_traitsIcESaIcEEEPKc.exit, %_ZN5osgeo4proj8internal11starts_withERKNSt7__cxx1112basic_stringIcSt11char_traitsIcESaIcEEEPKc.exit8, %_ZN5osgeo4proj8internal11starts_withERKNSt7__cxx1112basic_stringIcSt11char_traitsIcESaIcEEEPKc.exit11, %1
  %.0 = phi i1 [ false, %1 ], [ true, %_ZN5osgeo4proj8internal11starts_withERKNSt7__cxx1112basic_stringIcSt11char_traitsIcESaIcEEEPKc.exit11 ], [ true, %_ZN5osgeo4proj8internal11starts_withERKNSt7__cxx1112basic_stringIcSt11char_traitsIcESaIcEEEPKc.exit8 ], [ true, %_ZN5osgeo4proj8internal11starts_withERKNSt7__cxx1112basic_stringIcSt11char_traitsIcESaIcEEEPKc.exit ], [ %26, %24 ], [ false, %_ZN5osgeo4proj8internal11starts_withERKNSt7__cxx1112basic_stringIcSt11char_traitsIcESaIcEEEPKc.exit11.thread ]
  ret i1 %.0
}